target datalayout = "e-m:e-p270:32:32-p271:32:32-p272:64:64-i64:64-i128:128-f80:128-n8:16:32:64-S128"
target triple = "x86_64-pc-linux-gnu"

%struct.mbedtls_des_context = type { [32 x i32] }

; Function Attrs: nounwind uwtable
define hidden i32 @mbedtls_des_setkey_dec(ptr noundef %0, ptr noundef %1) #0 {
  %3 = alloca ptr, align 8
  %4 = alloca ptr, align 8
  %5 = alloca i32, align 4
  %6 = alloca i32, align 4
  %7 = alloca i32, align 4
  store ptr %0, ptr %3, align 8, !tbaa !3
  store ptr %1, ptr %4, align 8, !tbaa !10
  call void @llvm.lifetime.start.p0(i64 4, ptr %5) #8
  %8 = load ptr, ptr %3, align 8, !tbaa !3
  %9 = getelementptr inbounds nuw %struct.mbedtls_des_context, ptr %8, i32 0, i32 0
  %10 = getelementptr inbounds [32 x i32], ptr %9, i64 0, i64 0
  %11 = load ptr, ptr %4, align 8, !tbaa !10
  call void @mbedtls_des_setkey(ptr noundef %10, ptr noundef %11)
  store i32 0, ptr %5, align 4, !tbaa !12
  br label %12

12:                                               ; preds = %74, %2
  %13 = load i32, ptr %5, align 4, !tbaa !12
  %14 = icmp slt i32 %13, 16
  br i1 %14, label %15, label %77

15:                                               ; preds = %12
  br label %16

16:                                               ; preds = %15
  call void @llvm.lifetime.start.p0(i64 4, ptr %6) #8
  %17 = load ptr, ptr %3, align 8, !tbaa !3
  %18 = getelementptr inbounds nuw %struct.mbedtls_des_context, ptr %17, i32 0, i32 0
  %19 = load i32, ptr %5, align 4, !tbaa !12
  %20 = sext i32 %19 to i64
  %21 = getelementptr inbounds [32 x i32], ptr %18, i64 0, i64 %20
  %22 = load i32, ptr %21, align 4, !tbaa !12
  store i32 %22, ptr %6, align 4, !tbaa !12
  %23 = load ptr, ptr %3, align 8, !tbaa !3
  %24 = getelementptr inbounds nuw %struct.mbedtls_des_context, ptr %23, i32 0, i32 0
  %25 = load i32, ptr %5, align 4, !tbaa !12
  %26 = sub nsw i32 30, %25
  %27 = sext i32 %26 to i64
  %28 = getelementptr inbounds [32 x i32], ptr %24, i64 0, i64 %27
  %29 = load i32, ptr %28, align 4, !tbaa !12
  %30 = load ptr, ptr %3, align 8, !tbaa !3
  %31 = getelementptr inbounds nuw %struct.mbedtls_des_context, ptr %30, i32 0, i32 0
  %32 = load i32, ptr %5, align 4, !tbaa !12
  %33 = sext i32 %32 to i64
  %34 = getelementptr inbounds [32 x i32], ptr %31, i64 0, i64 %33
  store i32 %29, ptr %34, align 4, !tbaa !12
  %35 = load i32, ptr %6, align 4, !tbaa !12
  %36 = load ptr, ptr %3, align 8, !tbaa !3
  %37 = getelementptr inbounds nuw %struct.mbedtls_des_context, ptr %36, i32 0, i32 0
  %38 = load i32, ptr %5, align 4, !tbaa !12
  %39 = sub nsw i32 30, %38
  %40 = sext i32 %39 to i64
  %41 = getelementptr inbounds [32 x i32], ptr %37, i64 0, i64 %40
  store i32 %35, ptr %41, align 4, !tbaa !12
  store i32 0, ptr %6, align 4, !tbaa !12
  call void @llvm.lifetime.end.p0(i64 4, ptr %6) #8
  br label %42

42:                                               ; preds = %16
  br label %43

43:                                               ; preds = %42
  br label %44

44:                                               ; preds = %43
  call void @llvm.lifetime.start.p0(i64 4, ptr %7) #8
  %45 = load ptr, ptr %3, align 8, !tbaa !3
  %46 = getelementptr inbounds nuw %struct.mbedtls_des_context, ptr %45, i32 0, i32 0
  %47 = load i32, ptr %5, align 4, !tbaa !12
  %48 = add nsw i32 %47, 1
  %49 = sext i32 %48 to i64
  %50 = getelementptr inbounds [32 x i32], ptr %46, i64 0, i64 %49
  %51 = load i32, ptr %50, align 4, !tbaa !12
  store i32 %51, ptr %7, align 4, !tbaa !12
  %52 = load ptr, ptr %3, align 8, !tbaa !3
  %53 = getelementptr inbounds nuw %struct.mbedtls_des_context, ptr %52, i32 0, i32 0
  %54 = load i32, ptr %5, align 4, !tbaa !12
  %55 = sub nsw i32 31, %54
  %56 = sext i32 %55 to i64
  %57 = getelementptr inbounds [32 x i32], ptr %53, i64 0, i64 %56
  %58 = load i32, ptr %57, align 4, !tbaa !12
  %59 = load ptr, ptr %3, align 8, !tbaa !3
  %60 = getelementptr inbounds nuw %struct.mbedtls_des_context, ptr %59, i32 0, i32 0
  %61 = load i32, ptr %5, align 4, !tbaa !12
  %62 = add nsw i32 %61, 1
  %63 = sext i32 %62 to i64
  %64 = getelementptr inbounds [32 x i32], ptr %60, i64 0, i64 %63
  store i32 %58, ptr %64, align 4, !tbaa !12
  %65 = load i32, ptr %7, align 4, !tbaa !12
  %66 = load ptr, ptr %3, align 8, !tbaa !3
  %67 = getelementptr inbounds nuw %struct.mbedtls_des_context, ptr %66, i32 0, i32 0
  %68 = load i32, ptr %5, align 4, !tbaa !12
  %69 = sub nsw i32 31, %68
  %70 = sext i32 %69 to i64
  %71 = getelementptr inbounds [32 x i32], ptr %67, i64 0, i64 %70
  store i32 %65, ptr %71, align 4, !tbaa !12
  store i32 0, ptr %7, align 4, !tbaa !12
  call void @llvm.lifetime.end.p0(i64 4, ptr %7) #8
  br label %72

72:                                               ; preds = %44
  br label %73

73:                                               ; preds = %72
  br label %74

74:                                               ; preds = %73
  %75 = load i32, ptr %5, align 4, !tbaa !12
  %76 = add nsw i32 %75, 2
  store i32 %76, ptr %5, align 4, !tbaa !12
  br label %12, !llvm.loop !23

77:                                               ; preds = %12
  call void @llvm.lifetime.end.p0(i64 4, ptr %5) #8
  ret i32 0
}