; Function Attrs: nofree norecurse nosync nounwind memory(argmem: readwrite) uwtable
define hidden noundef i32 @mbedtls_des_setkey_dec(ptr noundef captures(none) %0, ptr noundef readonly captures(none) %1) local_unnamed_addr #4 {
  tail call void @mbedtls_des_setkey(ptr noundef %0, ptr noundef %1)
  br label %3

3:                                                ; preds = %2, %3
  %indvars.iv = phi i64 [ 0, %2 ], [ %indvars.iv.next, %3 ]
  %4 = getelementptr inbounds nuw [32 x i32], ptr %0, i64 0, i64 %indvars.iv
  %5 = load i32, ptr %4, align 4, !tbaa !10
  %6 = sub nuw nsw i64 30, %indvars.iv
  %7 = getelementptr inbounds nuw [32 x i32], ptr %0, i64 0, i64 %6
  %8 = load i32, ptr %7, align 4, !tbaa !10
  store i32 %8, ptr %4, align 4, !tbaa !10
  store i32 %5, ptr %7, align 4, !tbaa !10
  %9 = or disjoint i64 %indvars.iv, 1
  %10 = getelementptr inbounds nuw [32 x i32], ptr %0, i64 0, i64 %9
  %11 = load i32, ptr %10, align 4, !tbaa !10
  %12 = sub nuw nsw i64 31, %indvars.iv
  %13 = getelementptr inbounds nuw [32 x i32], ptr %0, i64 0, i64 %12
  %14 = load i32, ptr %13, align 4, !tbaa !10
  store i32 %14, ptr %10, align 4, !tbaa !10
  store i32 %11, ptr %13, align 4, !tbaa !10
  %indvars.iv.next = add nuw nsw i64 %indvars.iv, 2
  %15 = icmp samesign ult i64 %indvars.iv, 14
  br i1 %15, label %3, label %16, !llvm.loop !13

16:                                               ; preds = %3
  ret i32 0
}